target datalayout = "e-m:e-p270:32:32-p271:32:32-p272:64:64-i64:64-i128:128-f80:128-n8:16:32:64-S128"
target triple = "x86_64-pc-linux-gnu"

%struct._php_stream_wrapper = type { ptr, ptr, i32 }
%struct._php_stream_wrapper_ops = type { ptr, ptr, ptr, ptr, ptr, ptr, ptr, ptr, ptr, ptr, ptr }

; Function Attrs: nounwind uwtable
define i32 @_php_stream_rmdir(ptr noundef %0, i32 noundef %1, ptr noundef %2) #0 {
  %4 = alloca i32, align 4
  %5 = alloca ptr, align 8
  %6 = alloca i32, align 4
  %7 = alloca ptr, align 8
  %8 = alloca ptr, align 8
  store ptr %0, ptr %5, align 8
  store i32 %1, ptr %6, align 4
  store ptr %2, ptr %7, align 8
  store ptr null, ptr %8, align 8
  %9 = load ptr, ptr %5, align 8
  %10 = call ptr @php_stream_locate_url_wrapper(ptr noundef %9, ptr noundef null, i32 noundef 0)
  store ptr %10, ptr %8, align 8
  %11 = load ptr, ptr %8, align 8
  %12 = icmp ne ptr %11, null
  br i1 %12, label %13, label %25

13:                                               ; preds = %3
  %14 = load ptr, ptr %8, align 8
  %15 = getelementptr inbounds %struct._php_stream_wrapper, ptr %14, i32 0, i32 0
  %16 = load ptr, ptr %15, align 8
  %17 = icmp ne ptr %16, null
  br i1 %17, label %18, label %25

18:                                               ; preds = %13
  %19 = load ptr, ptr %8, align 8
  %20 = getelementptr inbounds %struct._php_stream_wrapper, ptr %19, i32 0, i32 0
  %21 = load ptr, ptr %20, align 8
  %22 = getelementptr inbounds %struct._php_stream_wrapper_ops, ptr %21, i32 0, i32 9
  %23 = load ptr, ptr %22, align 8
  %24 = icmp ne ptr %23, null
  br i1 %24, label %26, label %25

25:                                               ; preds = %18, %13, %3
  store i32 0, ptr %4, align 4
  br label %37

26:                                               ; preds = %18
  %27 = load ptr, ptr %8, align 8
  %28 = getelementptr inbounds %struct._php_stream_wrapper, ptr %27, i32 0, i32 0
  %29 = load ptr, ptr %28, align 8
  %30 = getelementptr inbounds %struct._php_stream_wrapper_ops, ptr %29, i32 0, i32 9
  %31 = load ptr, ptr %30, align 8
  %32 = load ptr, ptr %8, align 8
  %33 = load ptr, ptr %5, align 8
  %34 = load i32, ptr %6, align 4
  %35 = load ptr, ptr %7, align 8
  %36 = call i32 %31(ptr noundef %32, ptr noundef %33, i32 noundef %34, ptr noundef %35)
  store i32 %36, ptr %4, align 4
  br label %37

37:                                               ; preds = %26, %25
  %38 = load i32, ptr %4, align 4
  ret i32 %38
}