; Function Attrs: nounwind uwtable
define i32 @_php_stream_rmdir(ptr noundef %0, i32 noundef %1, ptr noundef %2) local_unnamed_addr #2 {
  %4 = tail call ptr @php_stream_locate_url_wrapper(ptr noundef %0, ptr noundef null, i32 noundef 0)
  %.not = icmp eq ptr %4, null
  br i1 %.not, label %12, label %5

5:                                                ; preds = %3
  %6 = load ptr, ptr %4, align 8
  %.not12 = icmp eq ptr %6, null
  br i1 %.not12, label %12, label %7

7:                                                ; preds = %5
  %8 = getelementptr inbounds i8, ptr %6, i64 72
  %9 = load ptr, ptr %8, align 8
  %.not13 = icmp eq ptr %9, null
  br i1 %.not13, label %12, label %10

10:                                               ; preds = %7
  %11 = tail call i32 %9(ptr noundef nonnull %4, ptr noundef %0, i32 noundef %1, ptr noundef %2) #27
  br label %12

12:                                               ; preds = %3, %5, %7, %10
  %.0 = phi i32 [ %11, %10 ], [ 0, %7 ], [ 0, %5 ], [ 0, %3 ]
  ret i32 %.0
}